target datalayout = "e-m:e-p270:32:32-p271:32:32-p272:64:64-i64:64-i128:128-f80:128-n8:16:32:64-S128"
target triple = "x86_64-pc-linux-gnu"

%class.QColor = type <{ i32, %"union.QColor::CT", [2 x i8] }>
%"union.QColor::CT" = type { %struct.anon }
%struct.anon = type { i16, i16, i16, i16, i16 }
%class.QBrush = type { %"class.std::unique_ptr" }
%"class.std::unique_ptr" = type { %"struct.std::__uniq_ptr_data" }
%"struct.std::__uniq_ptr_data" = type { %"class.std::__uniq_ptr_impl" }
%"class.std::__uniq_ptr_impl" = type { %"class.std::tuple" }
%"class.std::tuple" = type { %"struct.std::_Tuple_impl" }
%"struct.std::_Tuple_impl" = type { %"struct.std::_Head_base.5" }
%"struct.std::_Head_base.5" = type { ptr }
%struct.QBrushData = type { %class.QAtomicInt, i32, %class.QColor, %class.QTransform }
%class.QAtomicInt = type { %class.QAtomicInteger }
%class.QAtomicInteger = type { %class.QBasicAtomicInteger }
%class.QBasicAtomicInteger = type { %"struct.std::atomic" }
%"struct.std::atomic" = type { %"struct.std::__atomic_base" }
%"struct.std::__atomic_base" = type { i32 }
%class.QTransform = type <{ [3 x [3 x double]], i16, [6 x i8] }>
%class.QPalette = type <{ ptr, i32, [4 x i8] }>

@_ZN16QCoreApplication4selfE = external global ptr, align 8

; Function Attrs: mustprogress nounwind uwtable
define linkonce_odr noundef nonnull align 8 dereferenceable(8) ptr @_ZNSt10_Head_baseILm0EP10QBrushDataLb0EE7_M_headERKS2_(ptr noundef nonnull align 8 dereferenceable(8) %0) #2 comdat align 2 {
  %2 = alloca ptr, align 8
  store ptr %0, ptr %2, align 8
  %3 = load ptr, ptr %2, align 8
  %4 = getelementptr inbounds %"struct.std::_Head_base.5", ptr %3, i32 0, i32 0
  ret ptr %4
}

; Function Attrs: mustprogress nounwind uwtable
define linkonce_odr noundef nonnull align 8 dereferenceable(8) ptr @_ZNSt11_Tuple_implILm0EJP10QBrushData24QBrushDataPointerDeleterEE7_M_headERKS3_(ptr noundef nonnull align 8 dereferenceable(8) %0) #2 comdat align 2 {
  %2 = alloca ptr, align 8
  store ptr %0, ptr %2, align 8
  %3 = load ptr, ptr %2, align 8
  %4 = call noundef nonnull align 8 dereferenceable(8) ptr @_ZNSt10_Head_baseILm0EP10QBrushDataLb0EE7_M_headERKS2_(ptr noundef nonnull align 8 dereferenceable(8) %3) #6
  ret ptr %4
}

; Function Attrs: mustprogress nounwind uwtable
define linkonce_odr noundef nonnull align 8 dereferenceable(8) ptr @_ZSt12__get_helperILm0EP10QBrushDataJ24QBrushDataPointerDeleterEERKT0_RKSt11_Tuple_implIXT_EJS3_DpT1_EE(ptr noundef nonnull align 8 dereferenceable(8) %0) #2 comdat {
  %2 = alloca ptr, align 8
  store ptr %0, ptr %2, align 8
  %3 = load ptr, ptr %2, align 8
  %4 = call noundef nonnull align 8 dereferenceable(8) ptr @_ZNSt11_Tuple_implILm0EJP10QBrushData24QBrushDataPointerDeleterEE7_M_headERKS3_(ptr noundef nonnull align 8 dereferenceable(8) %3) #6
  ret ptr %4
}

; Function Attrs: mustprogress nounwind uwtable
define linkonce_odr noundef nonnull align 8 dereferenceable(8) ptr @_ZSt3getILm0EJP10QBrushData24QBrushDataPointerDeleterEERKNSt13tuple_elementIXT_ESt5tupleIJDpT0_EEE4typeERKS7_(ptr noundef nonnull align 8 dereferenceable(8) %0) #2 comdat {
  %2 = alloca ptr, align 8
  store ptr %0, ptr %2, align 8
  %3 = load ptr, ptr %2, align 8
  %4 = call noundef nonnull align 8 dereferenceable(8) ptr @_ZSt12__get_helperILm0EP10QBrushDataJ24QBrushDataPointerDeleterEERKT0_RKSt11_Tuple_implIXT_EJS3_DpT1_EE(ptr noundef nonnull align 8 dereferenceable(8) %3) #6
  ret ptr %4
}

; Function Attrs: mustprogress nounwind uwtable
define linkonce_odr noundef ptr @_ZNKSt15__uniq_ptr_implI10QBrushData24QBrushDataPointerDeleterE6_M_ptrEv(ptr noundef nonnull align 8 dereferenceable(8) %0) #2 comdat align 2 {
  %2 = alloca ptr, align 8
  store ptr %0, ptr %2, align 8
  %3 = load ptr, ptr %2, align 8
  %4 = getelementptr inbounds %"class.std::__uniq_ptr_impl", ptr %3, i32 0, i32 0
  %5 = call noundef nonnull align 8 dereferenceable(8) ptr @_ZSt3getILm0EJP10QBrushData24QBrushDataPointerDeleterEERKNSt13tuple_elementIXT_ESt5tupleIJDpT0_EEE4typeERKS7_(ptr noundef nonnull align 8 dereferenceable(8) %4) #6
  %6 = load ptr, ptr %5, align 8
  ret ptr %6
}

; Function Attrs: mustprogress nounwind uwtable
define linkonce_odr noundef ptr @_ZNKSt10unique_ptrI10QBrushData24QBrushDataPointerDeleterE3getEv(ptr noundef nonnull align 8 dereferenceable(8) %0) #2 comdat align 2 {
  %2 = alloca ptr, align 8
  store ptr %0, ptr %2, align 8
  %3 = load ptr, ptr %2, align 8
  %4 = getelementptr inbounds %"class.std::unique_ptr", ptr %3, i32 0, i32 0
  %5 = call noundef ptr @_ZNKSt15__uniq_ptr_implI10QBrushData24QBrushDataPointerDeleterE6_M_ptrEv(ptr noundef nonnull align 8 dereferenceable(8) %4) #6
  ret ptr %5
}

; Function Attrs: mustprogress nounwind uwtable
define linkonce_odr noundef ptr @_ZNKSt10unique_ptrI10QBrushData24QBrushDataPointerDeleterEptEv(ptr noundef nonnull align 8 dereferenceable(8) %0) #2 comdat align 2 {
  %2 = alloca ptr, align 8
  store ptr %0, ptr %2, align 8
  %3 = load ptr, ptr %2, align 8
  %4 = call noundef ptr @_ZNKSt10unique_ptrI10QBrushData24QBrushDataPointerDeleterE3getEv(ptr noundef nonnull align 8 dereferenceable(8) %3) #6
  ret ptr %4
}

; Function Attrs: mustprogress uwtable
define linkonce_odr noundef nonnull align 8 dereferenceable(8) ptr @_ZNK8QPalette5brushENS_9ColorRoleE(ptr noundef nonnull align 8 dereferenceable(12) %0, i32 noundef %1) #0 comdat align 2 {
  %3 = alloca ptr, align 8
  %4 = alloca i32, align 4
  store ptr %0, ptr %3, align 8
  store i32 %1, ptr %4, align 4
  %5 = load ptr, ptr %3, align 8
  %6 = load i32, ptr %4, align 4
  %7 = call noundef nonnull align 8 dereferenceable(8) ptr @_ZNK8QPalette5brushENS_10ColorGroupENS_9ColorRoleE(ptr noundef nonnull align 8 dereferenceable(12) %5, i32 noundef 4, i32 noundef %6)
  ret ptr %7
}

; Function Attrs: mustprogress uwtable
define linkonce_odr noundef nonnull align 8 dereferenceable(8) ptr @_ZNK8QPalette6windowEv(ptr noundef nonnull align 8 dereferenceable(12) %0) #0 comdat align 2 {
  %2 = alloca ptr, align 8
  store ptr %0, ptr %2, align 8
  %3 = load ptr, ptr %2, align 8
  %4 = call noundef nonnull align 8 dereferenceable(8) ptr @_ZNK8QPalette5brushENS_9ColorRoleE(ptr noundef nonnull align 8 dereferenceable(12) %3, i32 noundef 10)
  ret ptr %4
}

; Function Attrs: mustprogress nounwind uwtable
define linkonce_odr noundef nonnull align 4 dereferenceable(14) ptr @_ZNK6QBrush5colorEv(ptr noundef nonnull align 8 dereferenceable(8) %0) #2 comdat align 2 {
  %2 = alloca ptr, align 8
  store ptr %0, ptr %2, align 8
  %3 = load ptr, ptr %2, align 8
  %4 = getelementptr inbounds %class.QBrush, ptr %3, i32 0, i32 0
  %5 = call noundef ptr @_ZNKSt10unique_ptrI10QBrushData24QBrushDataPointerDeleterEptEv(ptr noundef nonnull align 8 dereferenceable(8) %4) #6
  %6 = getelementptr inbounds %struct.QBrushData, ptr %5, i32 0, i32 2
  ret ptr %6
}

; Function Attrs: mustprogress uwtable
define linkonce_odr noundef nonnull align 8 dereferenceable(8) ptr @_ZNK8QPalette10windowTextEv(ptr noundef nonnull align 8 dereferenceable(12) %0) #0 comdat align 2 {
  %2 = alloca ptr, align 8
  store ptr %0, ptr %2, align 8
  %3 = load ptr, ptr %2, align 8
  %4 = call noundef nonnull align 8 dereferenceable(8) ptr @_ZNK8QPalette5brushENS_9ColorRoleE(ptr noundef nonnull align 8 dereferenceable(12) %3, i32 noundef 0)
  ret ptr %4
}

; Function Attrs: mustprogress nounwind uwtable
define linkonce_odr noundef ptr @_ZN16QCoreApplication8instanceEv() #2 comdat align 2 {
  %1 = load ptr, ptr @_ZN16QCoreApplication4selfE, align 8
  ret ptr %1
}

; Function Attrs: mustprogress uwtable
define noundef zeroext i1 @_ZN10ColorUtils11themeIsDarkEv() #0 align 2 personality ptr @__gxx_personality_v0 {
  %1 = alloca %class.QPalette, align 8
  %2 = alloca ptr, align 8
  %3 = alloca i32, align 4
  %4 = alloca %class.QPalette, align 8
  %5 = call noundef ptr @_ZN16QCoreApplication8instanceEv()
  call void @_ZN15QGuiApplication7paletteEv(ptr dead_on_unwind writable sret(%class.QPalette) align 8 %1)
  %6 = invoke noundef nonnull align 8 dereferenceable(8) ptr @_ZNK8QPalette10windowTextEv(ptr noundef nonnull align 8 dereferenceable(12) %1)
          to label %7 unwind label %20

7:                                                ; preds = %0
  %8 = invoke noundef nonnull align 4 dereferenceable(14) ptr @_ZNK6QBrush5colorEv(ptr noundef nonnull align 8 dereferenceable(8) %6)
          to label %9 unwind label %20

9:                                                ; preds = %7
  %10 = call noundef i32 @_ZNK6QColor9lightnessEv(ptr noundef nonnull align 4 dereferenceable(14) %8) #6
  %11 = invoke noundef ptr @_ZN16QCoreApplication8instanceEv()
          to label %12 unwind label %20

12:                                               ; preds = %9
  invoke void @_ZN15QGuiApplication7paletteEv(ptr dead_on_unwind writable sret(%class.QPalette) align 8 %4)
          to label %13 unwind label %20

13:                                               ; preds = %12
  %14 = invoke noundef nonnull align 8 dereferenceable(8) ptr @_ZNK8QPalette6windowEv(ptr noundef nonnull align 8 dereferenceable(12) %4)
          to label %15 unwind label %24

15:                                               ; preds = %13
  %16 = invoke noundef nonnull align 4 dereferenceable(14) ptr @_ZNK6QBrush5colorEv(ptr noundef nonnull align 8 dereferenceable(8) %14)
          to label %17 unwind label %24

17:                                               ; preds = %15
  %18 = call noundef i32 @_ZNK6QColor9lightnessEv(ptr noundef nonnull align 4 dereferenceable(14) %16) #6
  %19 = icmp sgt i32 %10, %18
  call void @_ZN8QPaletteD1Ev(ptr noundef nonnull align 8 dereferenceable(12) %4) #6
  call void @_ZN8QPaletteD1Ev(ptr noundef nonnull align 8 dereferenceable(12) %1) #6
  ret i1 %19

20:                                               ; preds = %12, %9, %7, %0
  %21 = landingpad { ptr, i32 }
          cleanup
  %22 = extractvalue { ptr, i32 } %21, 0
  store ptr %22, ptr %2, align 8
  %23 = extractvalue { ptr, i32 } %21, 1
  store i32 %23, ptr %3, align 4
  br label %28

24:                                               ; preds = %15, %13
  %25 = landingpad { ptr, i32 }
          cleanup
  %26 = extractvalue { ptr, i32 } %25, 0
  store ptr %26, ptr %2, align 8
  %27 = extractvalue { ptr, i32 } %25, 1
  store i32 %27, ptr %3, align 4
  call void @_ZN8QPaletteD1Ev(ptr noundef nonnull align 8 dereferenceable(12) %4) #6
  br label %28

28:                                               ; preds = %24, %20
  call void @_ZN8QPaletteD1Ev(ptr noundef nonnull align 8 dereferenceable(12) %1) #6
  br label %29

29:                                               ; preds = %28
  %30 = load ptr, ptr %2, align 8
  %31 = load i32, ptr %3, align 4
  %32 = insertvalue { ptr, i32 } poison, ptr %30, 0
  %33 = insertvalue { ptr, i32 } %32, i32 %31, 1
  resume { ptr, i32 } %33
}