; Function Attrs: mustprogress uwtable
define noundef zeroext i1 @_ZN10ColorUtils11themeIsDarkEv() local_unnamed_addr #0 align 2 personality ptr @__gxx_personality_v0 {
  %1 = alloca %class.QPalette, align 8
  %2 = alloca %class.QPalette, align 8
  call void @_ZN15QGuiApplication7paletteEv(ptr dead_on_unwind nonnull writable sret(%class.QPalette) align 8 %1)
  %3 = invoke noundef nonnull align 8 dereferenceable(8) ptr @_ZNK8QPalette5brushENS_10ColorGroupENS_9ColorRoleE(ptr noundef nonnull align 8 dereferenceable(12) %1, i32 noundef 4, i32 noundef 0)
          to label %_ZNK8QPalette10windowTextEv.exit unwind label %13

_ZNK8QPalette10windowTextEv.exit:                 ; preds = %0
  %4 = load ptr, ptr %3, align 8
  %5 = getelementptr inbounds i8, ptr %4, i64 8
  %6 = call noundef i32 @_ZNK6QColor9lightnessEv(ptr noundef nonnull align 4 dereferenceable(14) %5) #15
  invoke void @_ZN15QGuiApplication7paletteEv(ptr dead_on_unwind nonnull writable sret(%class.QPalette) align 8 %2)
          to label %7 unwind label %13

7:                                                ; preds = %_ZNK8QPalette10windowTextEv.exit
  %8 = invoke noundef nonnull align 8 dereferenceable(8) ptr @_ZNK8QPalette5brushENS_10ColorGroupENS_9ColorRoleE(ptr noundef nonnull align 8 dereferenceable(12) %2, i32 noundef 4, i32 noundef 10)
          to label %_ZNK8QPalette6windowEv.exit unwind label %15

_ZNK8QPalette6windowEv.exit:                      ; preds = %7
  %9 = load ptr, ptr %8, align 8
  %10 = getelementptr inbounds i8, ptr %9, i64 8
  %11 = call noundef i32 @_ZNK6QColor9lightnessEv(ptr noundef nonnull align 4 dereferenceable(14) %10) #15
  %12 = icmp sgt i32 %6, %11
  call void @_ZN8QPaletteD1Ev(ptr noundef nonnull align 8 dereferenceable(12) %2) #15
  call void @_ZN8QPaletteD1Ev(ptr noundef nonnull align 8 dereferenceable(12) %1) #15
  ret i1 %12

13:                                               ; preds = %0, %_ZNK8QPalette10windowTextEv.exit
  %14 = landingpad { ptr, i32 }
          cleanup
  br label %17

15:                                               ; preds = %7
  %16 = landingpad { ptr, i32 }
          cleanup
  call void @_ZN8QPaletteD1Ev(ptr noundef nonnull align 8 dereferenceable(12) %2) #15
  br label %17

17:                                               ; preds = %15, %13
  %.pn = phi { ptr, i32 } [ %16, %15 ], [ %14, %13 ]
  call void @_ZN8QPaletteD1Ev(ptr noundef nonnull align 8 dereferenceable(12) %1) #15
  resume { ptr, i32 } %.pn
}